target datalayout = "e-m:e-p270:32:32-p271:32:32-p272:64:64-i64:64-i128:128-f80:128-n8:16:32:64-S128"
target triple = "x86_64-pc-linux-gnu"

%struct.ComplexArray = type { ptr, ptr }
%struct.DiagonalOp = type { i32, i64, i32, i32, ptr, ptr, %struct.ComplexArray }
%struct.QuESTEnv = type { i32, i32, ptr, i32, ptr }

; Function Attrs: nounwind uwtable
define void @QuESTAssert(i32 noundef %0, i32 noundef %1, ptr noundef %2) #0 {
  %4 = alloca i32, align 4
  %5 = alloca i32, align 4
  %6 = alloca ptr, align 8
  store i32 %0, ptr %4, align 4, !tbaa !9
  store i32 %1, ptr %5, align 4, !tbaa !9
  store ptr %2, ptr %6, align 8, !tbaa !4
  %7 = load i32, ptr %4, align 4, !tbaa !9
  %8 = icmp ne i32 %7, 0
  br i1 %8, label %15, label %9

9:                                                ; preds = %3
  %10 = load i32, ptr %5, align 4, !tbaa !9
  %11 = zext i32 %10 to i64
  %12 = getelementptr inbounds nuw [92 x ptr], ptr @errorMessages, i64 0, i64 %11
  %13 = load ptr, ptr %12, align 8, !tbaa !4
  %14 = load ptr, ptr %6, align 8, !tbaa !4
  call void @invalidQuESTInputError(ptr noundef %13, ptr noundef %14)
  br label %15

15:                                               ; preds = %9, %3
  ret void
}

; Function Attrs: nounwind uwtable
define void @validateDiagonalOpAllocation(ptr noundef %0, ptr noundef byval(%struct.QuESTEnv) align 8 %1, ptr noundef %2) #0 {
  %4 = alloca ptr, align 8
  %5 = alloca ptr, align 8
  %6 = alloca i32, align 4
  store ptr %0, ptr %4, align 8, !tbaa !70
  store ptr %2, ptr %5, align 8, !tbaa !4
  call void @llvm.lifetime.start.p0(i64 4, ptr %6) #7
  %7 = load ptr, ptr %4, align 8, !tbaa !70
  %8 = getelementptr inbounds nuw %struct.DiagonalOp, ptr %7, i32 0, i32 4
  %9 = load ptr, ptr %8, align 8, !tbaa !55
  %10 = icmp ne ptr %9, null
  br i1 %10, label %11, label %16

11:                                               ; preds = %3
  %12 = load ptr, ptr %4, align 8, !tbaa !70
  %13 = getelementptr inbounds nuw %struct.DiagonalOp, ptr %12, i32 0, i32 5
  %14 = load ptr, ptr %13, align 8, !tbaa !56
  %15 = icmp ne ptr %14, null
  br label %16

16:                                               ; preds = %11, %3
  %17 = phi i1 [ false, %3 ], [ %15, %11 ]
  %18 = zext i1 %17 to i32
  store i32 %18, ptr %6, align 4, !tbaa !9
  %19 = load i32, ptr %6, align 4, !tbaa !9
  %20 = icmp ne i32 %19, 0
  br i1 %20, label %27, label %21

21:                                               ; preds = %16
  %22 = load ptr, ptr %4, align 8, !tbaa !70
  call void @destroyDiagonalOp(ptr noundef byval(%struct.DiagonalOp) align 8 %22, ptr noundef byval(%struct.QuESTEnv) align 8 %1)
  %23 = load ptr, ptr %4, align 8, !tbaa !70
  %24 = getelementptr inbounds nuw %struct.DiagonalOp, ptr %23, i32 0, i32 4
  store ptr null, ptr %24, align 8, !tbaa !55
  %25 = load ptr, ptr %4, align 8, !tbaa !70
  %26 = getelementptr inbounds nuw %struct.DiagonalOp, ptr %25, i32 0, i32 5
  store ptr null, ptr %26, align 8, !tbaa !56
  br label %27

27:                                               ; preds = %21, %16
  %28 = load i32, ptr %6, align 4, !tbaa !9
  %29 = load ptr, ptr %5, align 8, !tbaa !4
  call void @QuESTAssert(i32 noundef %28, i32 noundef 87, ptr noundef %29)
  call void @llvm.lifetime.end.p0(i64 4, ptr %6) #7
  ret void
}