; Function Attrs: nounwind uwtable
define void @validateDiagonalOpAllocation(ptr noundef captures(none) %0, ptr noundef readonly byval(%struct.QuESTEnv) align 8 captures(none) %1, ptr noundef %2) local_unnamed_addr #3 {
  %4 = getelementptr inbounds nuw i8, ptr %0, i64 24
  %5 = load ptr, ptr %4, align 8, !tbaa !37
  %.not = icmp eq ptr %5, null
  br i1 %.not, label %.thread, label %6

6:                                                ; preds = %3
  %7 = getelementptr inbounds nuw i8, ptr %0, i64 32
  %8 = load ptr, ptr %7, align 8, !tbaa !48
  %.not9 = icmp eq ptr %8, null
  br i1 %.not9, label %.thread, label %QuESTAssert.exit

.thread:                                          ; preds = %3, %6
  tail call void @destroyDiagonalOp(ptr noundef nonnull byval(%struct.DiagonalOp) align 8 %0, ptr noundef nonnull byval(%struct.QuESTEnv) align 8 %1) #14
  tail call void @llvm.memset.p0.i64(ptr noundef nonnull align 8 dereferenceable(16) %4, i8 0, i64 16, i1 false)
  tail call void @invalidQuESTInputError(ptr noundef nonnull @.str.89, ptr noundef %2)
  br label %QuESTAssert.exit

QuESTAssert.exit:                                 ; preds = %6, %.thread
  ret void
}